; ModuleID = '51/354.c'
source_filename = "51/354.c"
target datalayout = "e-m:e-p270:32:32-p271:32:32-p272:64:64-i64:64-f80:128-n8:16:32:64-S128"
target triple = "x86_64-pc-linux-gnu"

@.str = private unnamed_addr constant [3 x i8] c"%d\00", align 1
@.str.1 = private unnamed_addr constant [4 x i8] c"NO\0A\00", align 1
@.str.2 = private unnamed_addr constant [4 x i8] c"%d\0A\00", align 1
@.str.3 = private unnamed_addr constant [3 x i8] c"%c\00", align 1
@.str.4 = private unnamed_addr constant [2 x i8] c"\0A\00", align 1

; Function Attrs: noinline nounwind uwtable
define dso_local i32 @main() #0 {
  %1 = alloca i32, align 4
  %2 = alloca i32, align 4
  %3 = alloca i32, align 4
  %4 = alloca i32, align 4
  %5 = alloca i32, align 4
  %6 = alloca i32, align 4
  %7 = alloca i32, align 4
  %8 = alloca i32, align 4
  %9 = alloca i32, align 4
  %10 = alloca i32, align 4
  %11 = alloca i32, align 4
  %12 = alloca [500 x i32], align 16
  %13 = alloca [501 x i8], align 16
  store i32 0, i32* %1, align 4
  store i32 0, i32* %2, align 4
  store i32 0, i32* %7, align 4
  store i32 0, i32* %8, align 4
  store i32 0, i32* %9, align 4
  store i32 0, i32* %10, align 4
  store i32 0, i32* %11, align 4
  %14 = call i32 (i8*, ...) @__isoc99_scanf(i8* getelementptr inbounds ([3 x i8], [3 x i8]* @.str, i64 0, i64 0), i32* %3)
  %15 = getelementptr inbounds [501 x i8], [501 x i8]* %13, i64 0, i64 0
  %16 = call i32 (i8*, ...) bitcast (i32 (...)* @gets to i32 (i8*, ...)*)(i8* %15)
  %17 = getelementptr inbounds [501 x i8], [501 x i8]* %13, i64 0, i64 0
  %18 = call i32 (i8*, ...) bitcast (i32 (...)* @gets to i32 (i8*, ...)*)(i8* %17)
  %19 = getelementptr inbounds [501 x i8], [501 x i8]* %13, i64 0, i64 0
  %20 = call i64 @strlen(i8* %19) #3
  %21 = trunc i64 %20 to i32
  store i32 %21, i32* %2, align 4
  store i32 0, i32* %4, align 4
  br label %22

22:                                               ; preds = %81, %0
  %23 = load i32, i32* %4, align 4
  %24 = load i32, i32* %2, align 4
  %25 = load i32, i32* %3, align 4
  %26 = sub nsw i32 %24, %25
  %27 = icmp slt i32 %23, %26
  br i1 %27, label %28, label %84

28:                                               ; preds = %22
  store i32 0, i32* %7, align 4
  %29 = load i32, i32* %4, align 4
  %30 = add nsw i32 %29, 1
  store i32 %30, i32* %5, align 4
  br label %31

31:                                               ; preds = %73, %28
  %32 = load i32, i32* %5, align 4
  %33 = load i32, i32* %2, align 4
  %34 = load i32, i32* %3, align 4
  %35 = sub nsw i32 %33, %34
  %36 = icmp sle i32 %32, %35
  br i1 %36, label %37, label %76

37:                                               ; preds = %31
  store i32 0, i32* %9, align 4
  store i32 0, i32* %6, align 4
  br label %38

38:                                               ; preds = %62, %37
  %39 = load i32, i32* %6, align 4
  %40 = load i32, i32* %3, align 4
  %41 = icmp slt i32 %39, %40
  br i1 %41, label %42, label %65

42:                                               ; preds = %38
  %43 = load i32, i32* %4, align 4
  %44 = load i32, i32* %6, align 4
  %45 = add nsw i32 %43, %44
  %46 = sext i32 %45 to i64
  %47 = getelementptr inbounds [501 x i8], [501 x i8]* %13, i64 0, i64 %46
  %48 = load i8, i8* %47, align 1
  %49 = sext i8 %48 to i32
  %50 = load i32, i32* %5, align 4
  %51 = load i32, i32* %6, align 4
  %52 = add nsw i32 %50, %51
  %53 = sext i32 %52 to i64
  %54 = getelementptr inbounds [501 x i8], [501 x i8]* %13, i64 0, i64 %53
  %55 = load i8, i8* %54, align 1
  %56 = sext i8 %55 to i32
  %57 = icmp eq i32 %49, %56
  br i1 %57, label %58, label %61

58:                                               ; preds = %42
  %59 = load i32, i32* %9, align 4
  %60 = add nsw i32 %59, 1
  store i32 %60, i32* %9, align 4
  store i32 %59, i32* %9, align 4
  br label %61

61:                                               ; preds = %58, %42
  br label %62

62:                                               ; preds = %61
  %63 = load i32, i32* %6, align 4
  %64 = add nsw i32 %63, 1
  store i32 %64, i32* %6, align 4
  br label %38

65:                                               ; preds = %38
  %66 = load i32, i32* %9, align 4
  %67 = load i32, i32* %3, align 4
  %68 = icmp eq i32 %66, %67
  br i1 %68, label %69, label %72

69:                                               ; preds = %65
  %70 = load i32, i32* %7, align 4
  %71 = add nsw i32 %70, 1
  store i32 %71, i32* %7, align 4
  store i32 %70, i32* %7, align 4
  br label %72

72:                                               ; preds = %69, %65
  br label %73

73:                                               ; preds = %72
  %74 = load i32, i32* %5, align 4
  %75 = add nsw i32 %74, 1
  store i32 %75, i32* %5, align 4
  br label %31

76:                                               ; preds = %31
  %77 = load i32, i32* %7, align 4
  %78 = load i32, i32* %4, align 4
  %79 = sext i32 %78 to i64
  %80 = getelementptr inbounds [500 x i32], [500 x i32]* %12, i64 0, i64 %79
  store i32 %77, i32* %80, align 4
  br label %81

81:                                               ; preds = %76
  %82 = load i32, i32* %4, align 4
  %83 = add nsw i32 %82, 1
  store i32 %83, i32* %4, align 4
  br label %22

84:                                               ; preds = %22
  store i32 0, i32* %4, align 4
  br label %85

85:                                               ; preds = %128, %84
  %86 = load i32, i32* %4, align 4
  %87 = load i32, i32* %2, align 4
  %88 = load i32, i32* %3, align 4
  %89 = sub nsw i32 %87, %88
  %90 = icmp slt i32 %86, %89
  br i1 %90, label %91, label %131

91:                                               ; preds = %85
  store i32 0, i32* %10, align 4
  store i32 0, i32* %5, align 4
  br label %92

92:                                               ; preds = %112, %91
  %93 = load i32, i32* %5, align 4
  %94 = load i32, i32* %2, align 4
  %95 = load i32, i32* %3, align 4
  %96 = sub nsw i32 %94, %95
  %97 = icmp slt i32 %93, %96
  br i1 %97, label %98, label %115

98:                                               ; preds = %92
  %99 = load i32, i32* %4, align 4
  %100 = sext i32 %99 to i64
  %101 = getelementptr inbounds [500 x i32], [500 x i32]* %12, i64 0, i64 %100
  %102 = load i32, i32* %101, align 4
  %103 = load i32, i32* %5, align 4
  %104 = sext i32 %103 to i64
  %105 = getelementptr inbounds [500 x i32], [500 x i32]* %12, i64 0, i64 %104
  %106 = load i32, i32* %105, align 4
  %107 = icmp sge i32 %102, %106
  br i1 %107, label %108, label %111

108:                                              ; preds = %98
  %109 = load i32, i32* %10, align 4
  %110 = add nsw i32 %109, 1
  store i32 %110, i32* %10, align 4
  store i32 %109, i32* %10, align 4
  br label %111

111:                                              ; preds = %108, %98
  br label %112

112:                                              ; preds = %111
  %113 = load i32, i32* %5, align 4
  %114 = add nsw i32 %113, 1
  store i32 %114, i32* %5, align 4
  br label %92

115:                                              ; preds = %92
  %116 = load i32, i32* %10, align 4
  %117 = load i32, i32* %2, align 4
  %118 = load i32, i32* %3, align 4
  %119 = sub nsw i32 %117, %118
  %120 = icmp eq i32 %116, %119
  br i1 %120, label %121, label %127

121:                                              ; preds = %115
  %122 = load i32, i32* %4, align 4
  %123 = sext i32 %122 to i64
  %124 = getelementptr inbounds [500 x i32], [500 x i32]* %12, i64 0, i64 %123
  %125 = load i32, i32* %124, align 4
  %126 = add nsw i32 %125, 1
  store i32 %126, i32* %8, align 4
  br label %131

127:                                              ; preds = %115
  br label %128

128:                                              ; preds = %127
  %129 = load i32, i32* %4, align 4
  %130 = add nsw i32 %129, 1
  store i32 %130, i32* %4, align 4
  br label %85

131:                                              ; preds = %121, %85
  %132 = load i32, i32* %8, align 4
  %133 = icmp sle i32 %132, 1
  br i1 %133, label %134, label %136

134:                                              ; preds = %131
  %135 = call i32 (i8*, ...) @printf(i8* getelementptr inbounds ([4 x i8], [4 x i8]* @.str.1, i64 0, i64 0))
  br label %276

136:                                              ; preds = %131
  store i32 0, i32* %4, align 4
  br label %137

137:                                              ; preds = %180, %136
  %138 = load i32, i32* %4, align 4
  %139 = load i32, i32* %2, align 4
  %140 = load i32, i32* %3, align 4
  %141 = sub nsw i32 %139, %140
  %142 = icmp slt i32 %138, %141
  br i1 %142, label %143, label %183

143:                                              ; preds = %137
  store i32 0, i32* %10, align 4
  store i32 0, i32* %5, align 4
  br label %144

144:                                              ; preds = %164, %143
  %145 = load i32, i32* %5, align 4
  %146 = load i32, i32* %2, align 4
  %147 = load i32, i32* %3, align 4
  %148 = sub nsw i32 %146, %147
  %149 = icmp slt i32 %145, %148
  br i1 %149, label %150, label %167

150:                                              ; preds = %144
  %151 = load i32, i32* %4, align 4
  %152 = sext i32 %151 to i64
  %153 = getelementptr inbounds [500 x i32], [500 x i32]* %12, i64 0, i64 %152
  %154 = load i32, i32* %153, align 4
  %155 = load i32, i32* %5, align 4
  %156 = sext i32 %155 to i64
  %157 = getelementptr inbounds [500 x i32], [500 x i32]* %12, i64 0, i64 %156
  %158 = load i32, i32* %157, align 4
  %159 = icmp sge i32 %154, %158
  br i1 %159, label %160, label %163

160:                                              ; preds = %150
  %161 = load i32, i32* %10, align 4
  %162 = add nsw i32 %161, 1
  store i32 %162, i32* %10, align 4
  store i32 %161, i32* %10, align 4
  br label %163

163:                                              ; preds = %160, %150
  br label %164

164:                                              ; preds = %163
  %165 = load i32, i32* %5, align 4
  %166 = add nsw i32 %165, 1
  store i32 %166, i32* %5, align 4
  br label %144

167:                                              ; preds = %144
  %168 = load i32, i32* %10, align 4
  %169 = load i32, i32* %2, align 4
  %170 = load i32, i32* %3, align 4
  %171 = sub nsw i32 %169, %170
  %172 = icmp eq i32 %168, %171
  br i1 %172, label %173, label %179

173:                                              ; preds = %167
  %174 = load i32, i32* %4, align 4
  %175 = sext i32 %174 to i64
  %176 = getelementptr inbounds [500 x i32], [500 x i32]* %12, i64 0, i64 %175
  %177 = load i32, i32* %176, align 4
  %178 = add nsw i32 %177, 1
  store i32 %178, i32* %8, align 4
  br label %183

179:                                              ; preds = %167
  br label %180

180:                                              ; preds = %179
  %181 = load i32, i32* %4, align 4
  %182 = add nsw i32 %181, 1
  store i32 %182, i32* %4, align 4
  br label %137

183:                                              ; preds = %173, %137
  %184 = load i32, i32* %8, align 4
  %185 = call i32 (i8*, ...) @printf(i8* getelementptr inbounds ([4 x i8], [4 x i8]* @.str.2, i64 0, i64 0), i32 %184)
  store i32 0, i32* %4, align 4
  br label %186

186:                                              ; preds = %243, %183
  %187 = load i32, i32* %4, align 4
  %188 = load i32, i32* %2, align 4
  %189 = load i32, i32* %3, align 4
  %190 = sub nsw i32 %188, %189
  %191 = icmp slt i32 %187, %190
  br i1 %191, label %192, label %246

192:                                              ; preds = %186
  store i32 0, i32* %10, align 4
  store i32 0, i32* %5, align 4
  br label %193

193:                                              ; preds = %213, %192
  %194 = load i32, i32* %5, align 4
  %195 = load i32, i32* %2, align 4
  %196 = load i32, i32* %3, align 4
  %197 = sub nsw i32 %195, %196
  %198 = icmp slt i32 %194, %197
  br i1 %198, label %199, label %216

199:                                              ; preds = %193
  %200 = load i32, i32* %4, align 4
  %201 = sext i32 %200 to i64
  %202 = getelementptr inbounds [500 x i32], [500 x i32]* %12, i64 0, i64 %201
  %203 = load i32, i32* %202, align 4
  %204 = load i32, i32* %5, align 4
  %205 = sext i32 %204 to i64
  %206 = getelementptr inbounds [500 x i32], [500 x i32]* %12, i64 0, i64 %205
  %207 = load i32, i32* %206, align 4
  %208 = icmp sge i32 %203, %207
  br i1 %208, label %209, label %212

209:                                              ; preds = %199
  %210 = load i32, i32* %10, align 4
  %211 = add nsw i32 %210, 1
  store i32 %211, i32* %10, align 4
  store i32 %210, i32* %10, align 4
  br label %212

212:                                              ; preds = %209, %199
  br label %213

213:                                              ; preds = %212
  %214 = load i32, i32* %5, align 4
  %215 = add nsw i32 %214, 1
  store i32 %215, i32* %5, align 4
  br label %193

216:                                              ; preds = %193
  %217 = load i32, i32* %10, align 4
  %218 = load i32, i32* %2, align 4
  %219 = load i32, i32* %3, align 4
  %220 = sub nsw i32 %218, %219
  %221 = icmp eq i32 %217, %220
  br i1 %221, label %222, label %242

222:                                              ; preds = %216
  %223 = load i32, i32* %4, align 4
  store i32 %223, i32* %6, align 4
  br label %224

224:                                              ; preds = %237, %222
  %225 = load i32, i32* %6, align 4
  %226 = load i32, i32* %4, align 4
  %227 = load i32, i32* %3, align 4
  %228 = add nsw i32 %226, %227
  %229 = icmp slt i32 %225, %228
  br i1 %229, label %230, label %240

230:                                              ; preds = %224
  %231 = load i32, i32* %6, align 4
  %232 = sext i32 %231 to i64
  %233 = getelementptr inbounds [501 x i8], [501 x i8]* %13, i64 0, i64 %232
  %234 = load i8, i8* %233, align 1
  %235 = sext i8 %234 to i32
  %236 = call i32 (i8*, ...) @printf(i8* getelementptr inbounds ([3 x i8], [3 x i8]* @.str.3, i64 0, i64 0), i32 %235)
  br label %237

237:                                              ; preds = %230
  %238 = load i32, i32* %6, align 4
  %239 = add nsw i32 %238, 1
  store i32 %239, i32* %6, align 4
  br label %224

240:                                              ; preds = %224
  %241 = call i32 (i8*, ...) @printf(i8* getelementptr inbounds ([2 x i8], [2 x i8]* @.str.4, i64 0, i64 0))
  br label %242

242:                                              ; preds = %240, %216
  br label %243

243:                                              ; preds = %242
  %244 = load i32, i32* %4, align 4
  %245 = add nsw i32 %244, 1
  store i32 %245, i32* %4, align 4
  br label %186

246:                                              ; preds = %186
  %247 = load i32, i32* %10, align 4
  %248 = load i32, i32* %2, align 4
  %249 = load i32, i32* %3, align 4
  %250 = sub nsw i32 %248, %249
  %251 = icmp eq i32 %247, %250
  br i1 %251, label %252, label %275

252:                                              ; preds = %246
  %253 = load i32, i32* %8, align 4
  %254 = icmp eq i32 %253, 1
  br i1 %254, label %255, label %274

255:                                              ; preds = %252
  %256 = load i32, i32* %2, align 4
  %257 = load i32, i32* %3, align 4
  %258 = sub nsw i32 %256, %257
  store i32 %258, i32* %11, align 4
  br label %259

259:                                              ; preds = %270, %255
  %260 = load i32, i32* %11, align 4
  %261 = load i32, i32* %2, align 4
  %262 = icmp slt i32 %260, %261
  br i1 %262, label %263, label %273

263:                                              ; preds = %259
  %264 = load i32, i32* %11, align 4
  %265 = sext i32 %264 to i64
  %266 = getelementptr inbounds [501 x i8], [501 x i8]* %13, i64 0, i64 %265
  %267 = load i8, i8* %266, align 1
  %268 = sext i8 %267 to i32
  %269 = call i32 (i8*, ...) @printf(i8* getelementptr inbounds ([3 x i8], [3 x i8]* @.str.3, i64 0, i64 0), i32 %268)
  br label %270

270:                                              ; preds = %263
  %271 = load i32, i32* %11, align 4
  %272 = add nsw i32 %271, 1
  store i32 %272, i32* %11, align 4
  br label %259

273:                                              ; preds = %259
  br label %274

274:                                              ; preds = %273, %252
  br label %275

275:                                              ; preds = %274, %246
  br label %276

276:                                              ; preds = %275, %134
  ret i32 0
}

declare dso_local i32 @__isoc99_scanf(i8*, ...) #1

declare dso_local i32 @gets(...) #1

; Function Attrs: nounwind readonly
declare dso_local i64 @strlen(i8*) #2

declare dso_local i32 @printf(i8*, ...) #1


!llvm.module.flags = !{!0}
!llvm.ident = !{!1}

!0 = !{i32 1, !"wchar_size", i32 4}
!1 = !{!"clang version 10.0.0-4ubuntu1 "}
